target datalayout = "e-m:e-p270:32:32-p271:32:32-p272:64:64-i64:64-i128:128-f80:128-n8:16:32:64-S128"
target triple = "x86_64-pc-linux-gnu"

%class.QObject = type { ptr, %class.QScopedPointer }
%class.QScopedPointer = type { ptr }
%struct.QListData = type { ptr }
%class.QPoint = type { i32, i32 }
%class.QRect = type { i32, i32, i32, i32 }
%class.QSize = type { i32, i32 }
%class.QObjectData = type { ptr, ptr, ptr, %class.QList.5, i32, i32, ptr }
%class.QList.5 = type { %union.anon.7 }
%union.anon.7 = type { %struct.QListData }

; Function Attrs: mustprogress nounwind uwtable
define linkonce_odr noundef ptr @_ZNK14QScopedPointerI11QObjectData21QScopedPointerDeleterIS0_EEptEv(ptr noundef nonnull align 8 dereferenceable(8) %0) #1 comdat align 2 {
  %2 = alloca ptr, align 8
  store ptr %0, ptr %2, align 8
  %3 = load ptr, ptr %2, align 8
  %4 = getelementptr inbounds %class.QScopedPointer, ptr %3, i32 0, i32 0
  %5 = load ptr, ptr %4, align 8
  ret ptr %5
}

; Function Attrs: mustprogress nounwind uwtable
define linkonce_odr noundef ptr @_ZNK7QObject6parentEv(ptr noundef nonnull align 8 dereferenceable(16) %0) #1 comdat align 2 {
  %2 = alloca ptr, align 8
  store ptr %0, ptr %2, align 8
  %3 = load ptr, ptr %2, align 8
  %4 = getelementptr inbounds %class.QObject, ptr %3, i32 0, i32 1
  %5 = call noundef ptr @_ZNK14QScopedPointerI11QObjectData21QScopedPointerDeleterIS0_EEptEv(ptr noundef nonnull align 8 dereferenceable(8) %4) #9
  %6 = getelementptr inbounds %class.QObjectData, ptr %5, i32 0, i32 2
  %7 = load ptr, ptr %6, align 8
  ret ptr %7
}

; Function Attrs: mustprogress uwtable
define linkonce_odr void @_ZN7QWidget4moveEii(ptr noundef nonnull align 8 dereferenceable(48) %0, i32 noundef %1, i32 noundef %2) #2 comdat align 2 {
  %4 = alloca ptr, align 8
  %5 = alloca i32, align 4
  %6 = alloca i32, align 4
  %7 = alloca %class.QPoint, align 4
  store ptr %0, ptr %4, align 8
  store i32 %1, ptr %5, align 4
  store i32 %2, ptr %6, align 4
  %8 = load ptr, ptr %4, align 8
  %9 = load i32, ptr %5, align 4
  %10 = load i32, ptr %6, align 4
  call void @_ZN6QPointC2Eii(ptr noundef nonnull align 4 dereferenceable(8) %7, i32 noundef %9, i32 noundef %10)
  call void @_ZN7QWidget4moveERK6QPoint(ptr noundef nonnull align 8 dereferenceable(48) %8, ptr noundef nonnull align 4 dereferenceable(8) %7)
  ret void
}

; Function Attrs: mustprogress nounwind uwtable
define linkonce_odr noundef i32 @_ZNK5QSize5widthEv(ptr noundef nonnull align 4 dereferenceable(8) %0) #1 comdat align 2 {
  %2 = alloca ptr, align 8
  store ptr %0, ptr %2, align 8
  %3 = load ptr, ptr %2, align 8
  %4 = getelementptr inbounds %class.QSize, ptr %3, i32 0, i32 0
  %5 = load i32, ptr %4, align 4
  ret i32 %5
}

; Function Attrs: mustprogress nounwind uwtable
define linkonce_odr noundef i32 @_ZNK5QRect5widthEv(ptr noundef nonnull align 4 dereferenceable(16) %0) #1 comdat align 2 {
  %2 = alloca ptr, align 8
  store ptr %0, ptr %2, align 8
  %3 = load ptr, ptr %2, align 8
  %4 = getelementptr inbounds %class.QRect, ptr %3, i32 0, i32 2
  %5 = load i32, ptr %4, align 4
  %6 = getelementptr inbounds %class.QRect, ptr %3, i32 0, i32 0
  %7 = load i32, ptr %6, align 4
  %8 = sub nsw i32 %5, %7
  %9 = add nsw i32 %8, 1
  ret i32 %9
}

; Function Attrs: mustprogress nounwind uwtable
define linkonce_odr noundef i32 @_ZNK6QPoint1xEv(ptr noundef nonnull align 4 dereferenceable(8) %0) #1 comdat align 2 {
  %2 = alloca ptr, align 8
  store ptr %0, ptr %2, align 8
  %3 = load ptr, ptr %2, align 8
  %4 = getelementptr inbounds %class.QPoint, ptr %3, i32 0, i32 0
  %5 = load i32, ptr %4, align 4
  ret i32 %5
}

; Function Attrs: mustprogress nounwind uwtable
define linkonce_odr void @_ZN6QPointC2Eii(ptr noundef nonnull align 4 dereferenceable(8) %0, i32 noundef %1, i32 noundef %2) unnamed_addr #1 comdat align 2 {
  %4 = alloca ptr, align 8
  %5 = alloca i32, align 4
  %6 = alloca i32, align 4
  store ptr %0, ptr %4, align 8
  store i32 %1, ptr %5, align 4
  store i32 %2, ptr %6, align 4
  %7 = load ptr, ptr %4, align 8
  %8 = getelementptr inbounds %class.QPoint, ptr %7, i32 0, i32 0
  %9 = load i32, ptr %5, align 4
  store i32 %9, ptr %8, align 4
  %10 = getelementptr inbounds %class.QPoint, ptr %7, i32 0, i32 1
  %11 = load i32, ptr %6, align 4
  store i32 %11, ptr %10, align 4
  ret void
}

; Function Attrs: mustprogress uwtable
define linkonce_odr noundef ptr @_ZNK7QWidget12parentWidgetEv(ptr noundef nonnull align 8 dereferenceable(48) %0) #2 comdat align 2 {
  %2 = alloca ptr, align 8
  store ptr %0, ptr %2, align 8
  %3 = load ptr, ptr %2, align 8
  %4 = call noundef ptr @_ZNK7QObject6parentEv(ptr noundef nonnull align 8 dereferenceable(16) %3)
  ret ptr %4
}

; Function Attrs: mustprogress uwtable
define void @_ZN10SearchMenu21alignToParentGeometryEv(ptr noundef nonnull align 8 dereferenceable(72) %0) #2 align 2 {
  %2 = alloca ptr, align 8
  %3 = alloca %class.QPoint, align 4
  %4 = alloca %class.QPoint, align 4
  %5 = alloca i32, align 4
  %6 = alloca %class.QRect, align 4
  %7 = alloca %class.QSize, align 4
  store ptr %0, ptr %2, align 8
  %8 = load ptr, ptr %2, align 8
  %9 = call noundef ptr @_ZNK7QWidget12parentWidgetEv(ptr noundef nonnull align 8 dereferenceable(48) %8)
  %10 = icmp ne ptr %9, null
  br i1 %10, label %11, label %31

11:                                               ; preds = %1
  %12 = call noundef ptr @_ZNK7QWidget12parentWidgetEv(ptr noundef nonnull align 8 dereferenceable(48) %8)
  call void @_ZN6QPointC2Eii(ptr noundef nonnull align 4 dereferenceable(8) %4, i32 noundef 0, i32 noundef 0)
  %13 = call i64 @_ZNK7QWidget11mapToGlobalERK6QPoint(ptr noundef nonnull align 8 dereferenceable(48) %12, ptr noundef nonnull align 4 dereferenceable(8) %4)
  store i64 %13, ptr %3, align 4
  %14 = call noundef i32 @_ZNK6QPoint1xEv(ptr noundef nonnull align 4 dereferenceable(8) %3)
  %15 = call noundef ptr @_ZNK7QWidget12parentWidgetEv(ptr noundef nonnull align 8 dereferenceable(48) %8)
  %16 = call { i64, i64 } @_ZNK7QWidget13frameGeometryEv(ptr noundef nonnull align 8 dereferenceable(48) %15)
  %17 = getelementptr inbounds { i64, i64 }, ptr %6, i32 0, i32 0
  %18 = extractvalue { i64, i64 } %16, 0
  store i64 %18, ptr %17, align 4
  %19 = getelementptr inbounds { i64, i64 }, ptr %6, i32 0, i32 1
  %20 = extractvalue { i64, i64 } %16, 1
  store i64 %20, ptr %19, align 4
  %21 = call noundef i32 @_ZNK5QRect5widthEv(ptr noundef nonnull align 4 dereferenceable(16) %6) #9
  %22 = add nsw i32 %14, %21
  store i32 %22, ptr %5, align 4
  %23 = load ptr, ptr %8, align 8
  %24 = getelementptr inbounds ptr, ptr %23, i64 14
  %25 = load ptr, ptr %24, align 8
  %26 = call i64 %25(ptr noundef nonnull align 8 dereferenceable(72) %8)
  store i64 %26, ptr %7, align 4
  %27 = load i32, ptr %5, align 4
  %28 = call noundef i32 @_ZNK5QSize5widthEv(ptr noundef nonnull align 4 dereferenceable(8) %7) #9
  %29 = sub nsw i32 %27, %28
  %30 = call noundef i32 @_ZNK7QWidget1yEv(ptr noundef nonnull align 8 dereferenceable(48) %8)
  call void @_ZN7QWidget4moveEii(ptr noundef nonnull align 8 dereferenceable(48) %8, i32 noundef %29, i32 noundef %30)
  br label %31

31:                                               ; preds = %11, %1
  ret void
}