; Function Attrs: mustprogress uwtable
define void @_ZN10SearchMenu21alignToParentGeometryEv(ptr noundef nonnull align 8 dereferenceable(72) %0) local_unnamed_addr #2 align 2 {
  %2 = alloca %class.QPoint, align 4
  %3 = alloca %class.QPoint, align 4
  %4 = getelementptr inbounds i8, ptr %0, i64 8
  %5 = load ptr, ptr %4, align 8
  %6 = getelementptr inbounds i8, ptr %5, i64 16
  %7 = load ptr, ptr %6, align 8
  %.not = icmp eq ptr %7, null
  br i1 %.not, label %26, label %8

8:                                                ; preds = %1
  store i32 0, ptr %3, align 4
  %9 = getelementptr inbounds i8, ptr %3, i64 4
  store i32 0, ptr %9, align 4
  %10 = call i64 @_ZNK7QWidget11mapToGlobalERK6QPoint(ptr noundef nonnull align 8 dereferenceable(48) %7, ptr noundef nonnull align 4 dereferenceable(8) %3)
  %.sroa.04.0.extract.trunc = trunc i64 %10 to i32
  %11 = load ptr, ptr %4, align 8
  %12 = getelementptr inbounds i8, ptr %11, i64 16
  %13 = load ptr, ptr %12, align 8
  %14 = call { i64, i64 } @_ZNK7QWidget13frameGeometryEv(ptr noundef nonnull align 8 dereferenceable(48) %13)
  %15 = extractvalue { i64, i64 } %14, 0
  %.sroa.01.0.extract.trunc = trunc i64 %15 to i32
  %16 = extractvalue { i64, i64 } %14, 1
  %.sroa.23.8.extract.trunc = trunc i64 %16 to i32
  %17 = load ptr, ptr %0, align 8
  %18 = getelementptr inbounds i8, ptr %17, i64 112
  %19 = load ptr, ptr %18, align 8
  %20 = call i64 %19(ptr noundef nonnull align 8 dereferenceable(72) %0)
  %.sroa.0.0.extract.trunc = trunc i64 %20 to i32
  %.neg = add i32 %.sroa.04.0.extract.trunc, 1
  %21 = add i32 %.neg, %.sroa.23.8.extract.trunc
  %22 = add i32 %.sroa.01.0.extract.trunc, %.sroa.0.0.extract.trunc
  %23 = sub i32 %21, %22
  %24 = call noundef i32 @_ZNK7QWidget1yEv(ptr noundef nonnull align 8 dereferenceable(48) %0)
  call void @llvm.lifetime.start.p0(i64 8, ptr nonnull %2)
  store i32 %23, ptr %2, align 4
  %25 = getelementptr inbounds i8, ptr %2, i64 4
  store i32 %24, ptr %25, align 4
  call void @_ZN7QWidget4moveERK6QPoint(ptr noundef nonnull align 8 dereferenceable(48) %0, ptr noundef nonnull align 4 dereferenceable(8) %2)
  call void @llvm.lifetime.end.p0(i64 8, ptr nonnull %2)
  br label %26

26:                                               ; preds = %8, %1
  ret void
}